; Function Attrs: mustprogress nounwind uwtable
define hidden void @_ZN7XDriverC2Ev(ptr noundef nonnull align 8 dereferenceable(1216) %0) unnamed_addr #4 align 2 {
  tail call void @_ZN18ConcurrentGCThreadC2Ev(ptr noundef nonnull align 8 dereferenceable(918) %0) #12
  store ptr getelementptr inbounds inrange(-16, 240) (i8, ptr @_ZTV7XDriver, i64 16), ptr %0, align 8
  %2 = getelementptr inbounds i8, ptr %0, i64 920
  tail call void @_ZN5MutexC2ENS_4RankEPKcb(ptr noundef nonnull align 8 dereferenceable(104) %2, i32 noundef 21, ptr noundef nonnull @.str.37, i1 noundef zeroext true) #12
  %3 = getelementptr inbounds i8, ptr %0, i64 1024
  store i8 0, ptr %3, align 8
  %4 = getelementptr inbounds i8, ptr %0, i64 1028
  %5 = load i32, ptr @ConcGCThreads, align 4
  store i32 11, ptr %4, align 4
  %6 = getelementptr inbounds i8, ptr %0, i64 1032
  store i32 %5, ptr %6, align 8
  %7 = getelementptr inbounds i8, ptr %0, i64 1040
  store i64 0, ptr %7, align 8
  %8 = getelementptr inbounds i8, ptr %0, i64 1048
  store ptr %8, ptr %8, align 8
  %9 = getelementptr inbounds i8, ptr %0, i64 1056
  store ptr %8, ptr %9, align 8
  %10 = getelementptr inbounds i8, ptr %0, i64 1064
  %11 = getelementptr inbounds i8, ptr %0, i64 1072
  tail call void @llvm.memset.p0.i64(ptr noundef nonnull align 8 dereferenceable(152) %10, i8 0, i64 152, i1 false)
  tail call void @_ZN5MutexC2ENS_4RankEPKcb(ptr noundef nonnull align 8 dereferenceable(104) %11, i32 noundef 21, ptr noundef nonnull @.str.37, i1 noundef zeroext true) #12
  %12 = getelementptr inbounds i8, ptr %0, i64 1176
  store i8 0, ptr %12, align 8
  %13 = getelementptr inbounds i8, ptr %0, i64 1184
  store i64 0, ptr %13, align 8
  %14 = getelementptr inbounds i8, ptr %0, i64 1192
  store ptr %14, ptr %14, align 8
  %15 = getelementptr inbounds i8, ptr %0, i64 1200
  store ptr %14, ptr %15, align 8
  %16 = getelementptr inbounds i8, ptr %0, i64 1208
  store i64 0, ptr %16, align 8
  tail call void (ptr, ptr, ...) @_ZN11NamedThread8set_nameEPKcz(ptr noundef nonnull align 8 dereferenceable(916) %0, ptr noundef nonnull @.str.30) #12
  tail call void @_ZN18ConcurrentGCThread16create_and_startE14ThreadPriority(ptr noundef nonnull align 8 dereferenceable(918) %0, i32 noundef 9) #12
  ret void
}